; ModuleID = 'source-C-CXX/22/616.cpp'
source_filename = "source-C-CXX/22/616.cpp"
target datalayout = "e-m:e-p270:32:32-p271:32:32-p272:64:64-i64:64-f80:128-n8:16:32:64-S128"
target triple = "x86_64-pc-linux-gnu"

%"class.std::ios_base::Init" = type { i8 }
%"class.std::basic_istream" = type { i32 (...)**, i64, %"class.std::basic_ios" }
%"class.std::basic_ios" = type { %"class.std::ios_base", %"class.std::basic_ostream"*, i8, i8, %"class.std::basic_streambuf"*, %"class.std::ctype"*, %"class.std::num_put"*, %"class.std::num_get"* }
%"class.std::ios_base" = type { i32 (...)**, i64, i64, i32, i32, i32, %"struct.std::ios_base::_Callback_list"*, %"struct.std::ios_base::_Words", [8 x %"struct.std::ios_base::_Words"], i32, %"struct.std::ios_base::_Words"*, %"class.std::locale" }
%"struct.std::ios_base::_Callback_list" = type { %"struct.std::ios_base::_Callback_list"*, void (i32, %"class.std::ios_base"*, i32)*, i32, i32 }
%"struct.std::ios_base::_Words" = type { i8*, i64 }
%"class.std::locale" = type { %"class.std::locale::_Impl"* }
%"class.std::locale::_Impl" = type { i32, %"class.std::locale::facet"**, i64, %"class.std::locale::facet"**, i8** }
%"class.std::locale::facet" = type <{ i32 (...)**, i32, [4 x i8] }>
%"class.std::basic_ostream" = type { i32 (...)**, %"class.std::basic_ios" }
%"class.std::basic_streambuf" = type { i32 (...)**, i8*, i8*, i8*, i8*, i8*, i8*, %"class.std::locale" }
%"class.std::ctype" = type <{ %"class.std::locale::facet.base", [4 x i8], %struct.__locale_struct*, i8, [7 x i8], i32*, i32*, i16*, i8, [256 x i8], [256 x i8], i8, [6 x i8] }>
%"class.std::locale::facet.base" = type <{ i32 (...)**, i32 }>
%struct.__locale_struct = type { [13 x %struct.__locale_data*], i16*, i32*, i32*, [13 x i8*] }
%struct.__locale_data = type opaque
%"class.std::num_put" = type { %"class.std::locale::facet.base", [4 x i8] }
%"class.std::num_get" = type { %"class.std::locale::facet.base", [4 x i8] }

@_ZStL8__ioinit = internal global %"class.std::ios_base::Init" zeroinitializer, align 1
@__dso_handle = external hidden global i8
@_ZSt3cin = external global %"class.std::basic_istream", align 8
@_ZSt4cout = external global %"class.std::basic_ostream", align 8
@.str = private unnamed_addr constant [2 x i8] c" \00", align 1
@llvm.global_ctors = appending global [1 x { i32, void ()*, i8* }] [{ i32, void ()*, i8* } { i32 65535, void ()* @_GLOBAL__sub_I_616.cpp, i8* null }]

declare void @_ZNSt8ios_base4InitC1Ev(%"class.std::ios_base::Init"* nonnull align 1 dereferenceable(1)) unnamed_addr #0

; Function Attrs: nounwind
declare void @_ZNSt8ios_base4InitD1Ev(%"class.std::ios_base::Init"* nonnull align 1 dereferenceable(1)) unnamed_addr #1

; Function Attrs: nofree nounwind
declare i32 @__cxa_atexit(void (i8*)*, i8*, i8*) local_unnamed_addr #2

; Function Attrs: mustprogress norecurse sspstrong uwtable
define dso_local i32 @main() local_unnamed_addr #3 {
  %1 = alloca [101 x i8], align 16
  %2 = alloca [100 x [150 x i8]], align 16
  %3 = getelementptr inbounds [101 x i8], [101 x i8]* %1, i64 0, i64 0
  call void @llvm.lifetime.start.p0i8(i64 101, i8* nonnull %3) #8
  %4 = load i8*, i8** bitcast (%"class.std::basic_istream"* @_ZSt3cin to i8**), align 8, !tbaa !5
  %5 = getelementptr i8, i8* %4, i64 -24
  %6 = bitcast i8* %5 to i64*
  %7 = load i64, i64* %6, align 8
  %8 = add nsw i64 %7, 240
  %9 = getelementptr inbounds i8, i8* bitcast (%"class.std::basic_istream"* @_ZSt3cin to i8*), i64 %8
  %10 = bitcast i8* %9 to %"class.std::ctype"**
  %11 = load %"class.std::ctype"*, %"class.std::ctype"** %10, align 8, !tbaa !8
  %12 = icmp eq %"class.std::ctype"* %11, null
  br i1 %12, label %13, label %14

13:                                               ; preds = %0
  tail call void @_ZSt16__throw_bad_castv() #9
  unreachable

14:                                               ; preds = %0
  %15 = getelementptr inbounds %"class.std::ctype", %"class.std::ctype"* %11, i64 0, i32 8
  %16 = load i8, i8* %15, align 8, !tbaa !13
  %17 = icmp eq i8 %16, 0
  br i1 %17, label %21, label %18

18:                                               ; preds = %14
  %19 = getelementptr inbounds %"class.std::ctype", %"class.std::ctype"* %11, i64 0, i32 9, i64 10
  %20 = load i8, i8* %19, align 1, !tbaa !15
  br label %27

21:                                               ; preds = %14
  tail call void @_ZNKSt5ctypeIcE13_M_widen_initEv(%"class.std::ctype"* nonnull align 8 dereferenceable(570) %11)
  %22 = bitcast %"class.std::ctype"* %11 to i8 (%"class.std::ctype"*, i8)***
  %23 = load i8 (%"class.std::ctype"*, i8)**, i8 (%"class.std::ctype"*, i8)*** %22, align 8, !tbaa !5
  %24 = getelementptr inbounds i8 (%"class.std::ctype"*, i8)*, i8 (%"class.std::ctype"*, i8)** %23, i64 6
  %25 = load i8 (%"class.std::ctype"*, i8)*, i8 (%"class.std::ctype"*, i8)** %24, align 8
  %26 = tail call signext i8 %25(%"class.std::ctype"* nonnull align 8 dereferenceable(570) %11, i8 signext 10)
  br label %27

27:                                               ; preds = %18, %21
  %28 = phi i8 [ %20, %18 ], [ %26, %21 ]
  %29 = call nonnull align 8 dereferenceable(16) %"class.std::basic_istream"* @_ZNSi7getlineEPclc(%"class.std::basic_istream"* nonnull align 8 dereferenceable(16) @_ZSt3cin, i8* nonnull %3, i64 100, i8 signext %28)
  %30 = getelementptr inbounds [100 x [150 x i8]], [100 x [150 x i8]]* %2, i64 0, i64 0, i64 0
  call void @llvm.lifetime.start.p0i8(i64 15000, i8* nonnull %30) #8
  %31 = call i64 @strlen(i8* noundef nonnull %3) #10
  %32 = icmp eq i64 %31, 0
  br i1 %32, label %76, label %33

33:                                               ; preds = %27
  %34 = and i64 %31, 1
  %35 = icmp eq i64 %31, 1
  br i1 %35, label %60, label %36

36:                                               ; preds = %33
  %37 = and i64 %31, -2
  br label %38

38:                                               ; preds = %131, %36
  %39 = phi i64 [ 0, %36 ], [ %134, %131 ]
  %40 = phi i32 [ 0, %36 ], [ %133, %131 ]
  %41 = phi i32 [ 0, %36 ], [ %132, %131 ]
  %42 = phi i64 [ %37, %36 ], [ %135, %131 ]
  %43 = getelementptr inbounds [101 x i8], [101 x i8]* %1, i64 0, i64 %39
  %44 = load i8, i8* %43, align 2, !tbaa !15
  %45 = icmp eq i8 %44, 32
  br i1 %45, label %46, label %48

46:                                               ; preds = %38
  %47 = add nsw i32 %41, 1
  br label %53

48:                                               ; preds = %38
  %49 = sext i32 %41 to i64
  %50 = sext i32 %40 to i64
  %51 = getelementptr inbounds [100 x [150 x i8]], [100 x [150 x i8]]* %2, i64 0, i64 %49, i64 %50
  store i8 %44, i8* %51, align 1, !tbaa !15
  %52 = add nsw i32 %40, 1
  br label %53

53:                                               ; preds = %48, %46
  %54 = phi i32 [ %47, %46 ], [ %41, %48 ]
  %55 = phi i32 [ 0, %46 ], [ %52, %48 ]
  %56 = or i64 %39, 1
  %57 = getelementptr inbounds [101 x i8], [101 x i8]* %1, i64 0, i64 %56
  %58 = load i8, i8* %57, align 1, !tbaa !15
  %59 = icmp eq i8 %58, 32
  br i1 %59, label %129, label %124

60:                                               ; preds = %131, %33
  %61 = phi i32 [ undef, %33 ], [ %132, %131 ]
  %62 = phi i64 [ 0, %33 ], [ %134, %131 ]
  %63 = phi i32 [ 0, %33 ], [ %133, %131 ]
  %64 = phi i32 [ 0, %33 ], [ %132, %131 ]
  %65 = icmp eq i64 %34, 0
  br i1 %65, label %76, label %66

66:                                               ; preds = %60
  %67 = getelementptr inbounds [101 x i8], [101 x i8]* %1, i64 0, i64 %62
  %68 = load i8, i8* %67, align 1, !tbaa !15
  %69 = icmp eq i8 %68, 32
  br i1 %69, label %74, label %70

70:                                               ; preds = %66
  %71 = sext i32 %64 to i64
  %72 = sext i32 %63 to i64
  %73 = getelementptr inbounds [100 x [150 x i8]], [100 x [150 x i8]]* %2, i64 0, i64 %71, i64 %72
  store i8 %68, i8* %73, align 1, !tbaa !15
  br label %76

74:                                               ; preds = %66
  %75 = add nsw i32 %64, 1
  br label %76

76:                                               ; preds = %60, %70, %74, %27
  %77 = phi i32 [ 0, %27 ], [ %61, %60 ], [ %75, %74 ], [ %64, %70 ]
  %78 = sext i32 %77 to i64
  %79 = getelementptr inbounds [100 x [150 x i8]], [100 x [150 x i8]]* %2, i64 0, i64 %78, i64 0
  %80 = call i64 @strlen(i8* noundef nonnull dereferenceable(1) %79) #8
  %81 = call nonnull align 8 dereferenceable(8) %"class.std::basic_ostream"* @_ZSt16__ostream_insertIcSt11char_traitsIcEERSt13basic_ostreamIT_T0_ES6_PKS3_l(%"class.std::basic_ostream"* nonnull align 8 dereferenceable(8) @_ZSt4cout, i8* nonnull %79, i64 %80)
  %82 = icmp sgt i32 %77, 0
  br i1 %82, label %83, label %96

83:                                               ; preds = %76
  %84 = zext i32 %77 to i64
  br label %85

85:                                               ; preds = %83, %85
  %86 = phi i64 [ %84, %83 ], [ %95, %85 ]
  %87 = phi i32 [ %77, %83 ], [ %88, %85 ]
  %88 = add nsw i32 %87, -1
  %89 = call nonnull align 8 dereferenceable(8) %"class.std::basic_ostream"* @_ZSt16__ostream_insertIcSt11char_traitsIcEERSt13basic_ostreamIT_T0_ES6_PKS3_l(%"class.std::basic_ostream"* nonnull align 8 dereferenceable(8) @_ZSt4cout, i8* nonnull getelementptr inbounds ([2 x i8], [2 x i8]* @.str, i64 0, i64 0), i64 1)
  %90 = zext i32 %88 to i64
  %91 = getelementptr inbounds [100 x [150 x i8]], [100 x [150 x i8]]* %2, i64 0, i64 %90, i64 0
  %92 = call i64 @strlen(i8* noundef nonnull dereferenceable(1) %91) #8
  %93 = call nonnull align 8 dereferenceable(8) %"class.std::basic_ostream"* @_ZSt16__ostream_insertIcSt11char_traitsIcEERSt13basic_ostreamIT_T0_ES6_PKS3_l(%"class.std::basic_ostream"* nonnull align 8 dereferenceable(8) @_ZSt4cout, i8* nonnull %91, i64 %92)
  %94 = icmp sgt i64 %86, 1
  %95 = add nsw i64 %86, -1
  br i1 %94, label %85, label %96, !llvm.loop !16

96:                                               ; preds = %85, %76
  %97 = load i8*, i8** bitcast (%"class.std::basic_ostream"* @_ZSt4cout to i8**), align 8, !tbaa !5
  %98 = getelementptr i8, i8* %97, i64 -24
  %99 = bitcast i8* %98 to i64*
  %100 = load i64, i64* %99, align 8
  %101 = add nsw i64 %100, 240
  %102 = getelementptr inbounds i8, i8* bitcast (%"class.std::basic_ostream"* @_ZSt4cout to i8*), i64 %101
  %103 = bitcast i8* %102 to %"class.std::ctype"**
  %104 = load %"class.std::ctype"*, %"class.std::ctype"** %103, align 8, !tbaa !8
  %105 = icmp eq %"class.std::ctype"* %104, null
  br i1 %105, label %106, label %107

106:                                              ; preds = %96
  call void @_ZSt16__throw_bad_castv() #9
  unreachable

107:                                              ; preds = %96
  %108 = getelementptr inbounds %"class.std::ctype", %"class.std::ctype"* %104, i64 0, i32 8
  %109 = load i8, i8* %108, align 8, !tbaa !13
  %110 = icmp eq i8 %109, 0
  br i1 %110, label %114, label %111

111:                                              ; preds = %107
  %112 = getelementptr inbounds %"class.std::ctype", %"class.std::ctype"* %104, i64 0, i32 9, i64 10
  %113 = load i8, i8* %112, align 1, !tbaa !15
  br label %120

114:                                              ; preds = %107
  call void @_ZNKSt5ctypeIcE13_M_widen_initEv(%"class.std::ctype"* nonnull align 8 dereferenceable(570) %104)
  %115 = bitcast %"class.std::ctype"* %104 to i8 (%"class.std::ctype"*, i8)***
  %116 = load i8 (%"class.std::ctype"*, i8)**, i8 (%"class.std::ctype"*, i8)*** %115, align 8, !tbaa !5
  %117 = getelementptr inbounds i8 (%"class.std::ctype"*, i8)*, i8 (%"class.std::ctype"*, i8)** %116, i64 6
  %118 = load i8 (%"class.std::ctype"*, i8)*, i8 (%"class.std::ctype"*, i8)** %117, align 8
  %119 = call signext i8 %118(%"class.std::ctype"* nonnull align 8 dereferenceable(570) %104, i8 signext 10)
  br label %120

120:                                              ; preds = %111, %114
  %121 = phi i8 [ %113, %111 ], [ %119, %114 ]
  %122 = call nonnull align 8 dereferenceable(8) %"class.std::basic_ostream"* @_ZNSo3putEc(%"class.std::basic_ostream"* nonnull align 8 dereferenceable(8) @_ZSt4cout, i8 signext %121)
  %123 = call nonnull align 8 dereferenceable(8) %"class.std::basic_ostream"* @_ZNSo5flushEv(%"class.std::basic_ostream"* nonnull align 8 dereferenceable(8) %122)
  call void @llvm.lifetime.end.p0i8(i64 15000, i8* nonnull %30) #8
  call void @llvm.lifetime.end.p0i8(i64 101, i8* nonnull %3) #8
  ret i32 0

124:                                              ; preds = %53
  %125 = sext i32 %54 to i64
  %126 = sext i32 %55 to i64
  %127 = getelementptr inbounds [100 x [150 x i8]], [100 x [150 x i8]]* %2, i64 0, i64 %125, i64 %126
  store i8 %58, i8* %127, align 1, !tbaa !15
  %128 = add nsw i32 %55, 1
  br label %131

129:                                              ; preds = %53
  %130 = add nsw i32 %54, 1
  br label %131

131:                                              ; preds = %129, %124
  %132 = phi i32 [ %130, %129 ], [ %54, %124 ]
  %133 = phi i32 [ 0, %129 ], [ %128, %124 ]
  %134 = add nuw nsw i64 %39, 2
  %135 = add i64 %42, -2
  %136 = icmp eq i64 %135, 0
  br i1 %136, label %60, label %38, !llvm.loop !18
}

; Function Attrs: argmemonly mustprogress nofree nosync nounwind willreturn
declare void @llvm.lifetime.start.p0i8(i64 immarg, i8* nocapture) #4

; Function Attrs: argmemonly mustprogress nofree nounwind readonly willreturn
declare i64 @strlen(i8* nocapture) local_unnamed_addr #5

; Function Attrs: argmemonly mustprogress nofree nosync nounwind willreturn
declare void @llvm.lifetime.end.p0i8(i64 immarg, i8* nocapture) #4

declare nonnull align 8 dereferenceable(16) %"class.std::basic_istream"* @_ZNSi7getlineEPclc(%"class.std::basic_istream"* nonnull align 8 dereferenceable(16), i8*, i64, i8 signext) local_unnamed_addr #0

; Function Attrs: noreturn
declare void @_ZSt16__throw_bad_castv() local_unnamed_addr #6

declare void @_ZNKSt5ctypeIcE13_M_widen_initEv(%"class.std::ctype"* nonnull align 8 dereferenceable(570)) local_unnamed_addr #0

declare nonnull align 8 dereferenceable(8) %"class.std::basic_ostream"* @_ZSt16__ostream_insertIcSt11char_traitsIcEERSt13basic_ostreamIT_T0_ES6_PKS3_l(%"class.std::basic_ostream"* nonnull align 8 dereferenceable(8), i8*, i64) local_unnamed_addr #0

declare nonnull align 8 dereferenceable(8) %"class.std::basic_ostream"* @_ZNSo3putEc(%"class.std::basic_ostream"* nonnull align 8 dereferenceable(8), i8 signext) local_unnamed_addr #0

declare nonnull align 8 dereferenceable(8) %"class.std::basic_ostream"* @_ZNSo5flushEv(%"class.std::basic_ostream"* nonnull align 8 dereferenceable(8)) local_unnamed_addr #0

; Function Attrs: sspstrong uwtable
define internal void @_GLOBAL__sub_I_616.cpp() #7 section ".text.startup" {
  tail call void @_ZNSt8ios_base4InitC1Ev(%"class.std::ios_base::Init"* nonnull align 1 dereferenceable(1) @_ZStL8__ioinit)
  %1 = tail call i32 @__cxa_atexit(void (i8*)* bitcast (void (%"class.std::ios_base::Init"*)* @_ZNSt8ios_base4InitD1Ev to void (i8*)*), i8* getelementptr inbounds (%"class.std::ios_base::Init", %"class.std::ios_base::Init"* @_ZStL8__ioinit, i64 0, i32 0), i8* nonnull @__dso_handle) #8
  ret void
}


!llvm.module.flags = !{!0, !1, !2, !3}
!llvm.ident = !{!4}

!0 = !{i32 1, !"wchar_size", i32 4}
!1 = !{i32 7, !"PIC Level", i32 2}
!2 = !{i32 7, !"PIE Level", i32 2}
!3 = !{i32 7, !"uwtable", i32 1}
!4 = !{!"clang version 13.0.0"}
!5 = !{!6, !6, i64 0}
!6 = !{!"vtable pointer", !7, i64 0}
!7 = !{!"Simple C++ TBAA"}
!8 = !{!9, !10, i64 240}
!9 = !{!"_ZTSSt9basic_iosIcSt11char_traitsIcEE", !10, i64 216, !11, i64 224, !12, i64 225, !10, i64 232, !10, i64 240, !10, i64 248, !10, i64 256}
!10 = !{!"any pointer", !11, i64 0}
!11 = !{!"omnipotent char", !7, i64 0}
!12 = !{!"bool", !11, i64 0}
!13 = !{!14, !11, i64 56}
!14 = !{!"_ZTSSt5ctypeIcE", !10, i64 16, !12, i64 24, !10, i64 32, !10, i64 40, !10, i64 48, !11, i64 56, !11, i64 57, !11, i64 313, !11, i64 569}
!15 = !{!11, !11, i64 0}
!16 = distinct !{!16, !17}
!17 = !{!"llvm.loop.mustprogress"}
!18 = distinct !{!18, !17}
